; Function Attrs: mustprogress uwtable
define dso_local void @_ZNK12CVQualifiers16OutputFirstQualsERSo(ptr nocapture noundef nonnull readonly align 8 dereferenceable(96) %0, ptr noundef nonnull align 8 dereferenceable(8) %1) local_unnamed_addr #4 align 2 personality ptr @__gxx_personality_v0 {
  %3 = getelementptr inbounds i8, ptr %0, i64 16
  %4 = getelementptr inbounds i8, ptr %0, i64 32
  %5 = load ptr, ptr %4, align 8
  %6 = getelementptr inbounds i8, ptr %0, i64 40
  %7 = load i32, ptr %6, align 8
  %8 = load ptr, ptr %3, align 8
  %9 = ptrtoint ptr %5 to i64
  %10 = ptrtoint ptr %8 to i64
  %11 = sub i64 %9, %10
  %12 = shl nsw i64 %11, 3
  %13 = zext i32 %7 to i64
  %14 = sub nsw i64 0, %13
  %.not = icmp eq i64 %12, %14
  br i1 %.not, label %21, label %15

15:                                               ; preds = %2
  %16 = load i64, ptr %8, align 8
  %17 = and i64 %16, 1
  %.not4 = icmp eq i64 %17, 0
  br i1 %.not4, label %21, label %18

18:                                               ; preds = %15
  %19 = tail call noundef zeroext i1 @_ZN9CGOptions6constsEv()
  %20 = tail call noundef nonnull align 8 dereferenceable(8) ptr @_ZStlsISt11char_traitsIcEERSt13basic_ostreamIcT_ES5_PKc(ptr noundef nonnull align 8 dereferenceable(8) %1, ptr noundef nonnull @.str.2)
  br label %21

21:                                               ; preds = %18, %15, %2
  %22 = getelementptr inbounds i8, ptr %0, i64 56
  %23 = getelementptr inbounds i8, ptr %0, i64 72
  %24 = load ptr, ptr %23, align 8
  %25 = getelementptr inbounds i8, ptr %0, i64 80
  %26 = load i32, ptr %25, align 8
  %27 = load ptr, ptr %22, align 8
  %28 = ptrtoint ptr %24 to i64
  %29 = ptrtoint ptr %27 to i64
  %30 = sub i64 %28, %29
  %31 = shl nsw i64 %30, 3
  %32 = zext i32 %26 to i64
  %33 = sub nsw i64 0, %32
  %.not3 = icmp eq i64 %31, %33
  br i1 %.not3, label %40, label %34

34:                                               ; preds = %21
  %35 = load i64, ptr %27, align 8
  %36 = and i64 %35, 1
  %.not5 = icmp eq i64 %36, 0
  br i1 %.not5, label %40, label %37

37:                                               ; preds = %34
  %38 = tail call noundef zeroext i1 @_ZN9CGOptions9volatilesEv()
  %39 = tail call noundef nonnull align 8 dereferenceable(8) ptr @_ZStlsISt11char_traitsIcEERSt13basic_ostreamIcT_ES5_PKc(ptr noundef nonnull align 8 dereferenceable(8) %1, ptr noundef nonnull @.str.3)
  br label %40

40:                                               ; preds = %37, %34, %21
  ret void
}